target datalayout = "e-m:e-p270:32:32-p271:32:32-p272:64:64-i64:64-i128:128-f80:128-n8:16:32:64-S128"
target triple = "x86_64-pc-linux-gnu"

%struct.__va_list_tag = type { i32, i32, ptr, ptr }

; Function Attrs: nounwind uwtable
define void @agerrorf(ptr noundef %0, ...) #0 {
  %2 = alloca ptr, align 8
  %3 = alloca [1 x %struct.__va_list_tag], align 16
  store ptr %0, ptr %2, align 8, !tbaa !9
  call void @llvm.lifetime.start.p0(i64 24, ptr %3) #14
  %4 = getelementptr inbounds [1 x %struct.__va_list_tag], ptr %3, i64 0, i64 0
  call void @llvm.va_start.p0(ptr %4)
  %5 = load ptr, ptr %2, align 8, !tbaa !9
  %6 = getelementptr inbounds [1 x %struct.__va_list_tag], ptr %3, i64 0, i64 0
  %7 = call i32 @agerr_va(i32 noundef 1, ptr noundef %5, ptr noundef %6)
  %8 = getelementptr inbounds [1 x %struct.__va_list_tag], ptr %3, i64 0, i64 0
  call void @llvm.va_end.p0(ptr %8)
  call void @llvm.lifetime.end.p0(i64 24, ptr %3) #14
  ret void
}